target datalayout = "e-m:e-p270:32:32-p271:32:32-p272:64:64-i64:64-i128:128-f80:128-n8:16:32:64-S128"
target triple = "x86_64-pc-linux-gnu"

%"class.net::SpdyFrameBuilder" = type <{ %"class.std::unique_ptr", i64, i64, i64, i32, [4 x i8] }>
%"class.std::unique_ptr" = type { %"struct.std::__uniq_ptr_data" }
%"struct.std::__uniq_ptr_data" = type { %"class.std::__uniq_ptr_impl" }
%"class.std::__uniq_ptr_impl" = type { %"class.std::tuple" }
%"class.std::tuple" = type { %"struct.std::_Tuple_impl" }
%"struct.std::_Tuple_impl" = type { %"struct.std::_Head_base.1" }
%"struct.std::_Head_base.1" = type { ptr }

; Function Attrs: mustprogress nounwind uwtable
define linkonce_odr noundef nonnull align 8 dereferenceable(8) ptr @_ZNSt10_Head_baseILm0EPcLb0EE7_M_headERKS1_(ptr noundef nonnull align 8 dereferenceable(8) %0) #2 comdat align 2 {
  %2 = alloca ptr, align 8
  store ptr %0, ptr %2, align 8, !tbaa !133
  %3 = load ptr, ptr %2, align 8, !tbaa !133
  %4 = getelementptr inbounds nuw %"struct.std::_Head_base.1", ptr %3, i32 0, i32 0
  ret ptr %4
}

; Function Attrs: mustprogress nounwind uwtable
define linkonce_odr noundef nonnull align 8 dereferenceable(8) ptr @_ZNSt11_Tuple_implILm0EJPcSt14default_deleteIA_cEEE7_M_headERKS4_(ptr noundef nonnull align 8 dereferenceable(8) %0) #2 comdat align 2 {
  %2 = alloca ptr, align 8
  store ptr %0, ptr %2, align 8, !tbaa !131
  %3 = load ptr, ptr %2, align 8, !tbaa !131
  %4 = call noundef nonnull align 8 dereferenceable(8) ptr @_ZNSt10_Head_baseILm0EPcLb0EE7_M_headERKS1_(ptr noundef nonnull align 8 dereferenceable(8) %3) #13
  ret ptr %4
}

; Function Attrs: mustprogress nounwind uwtable
define linkonce_odr noundef nonnull align 8 dereferenceable(8) ptr @_ZSt12__get_helperILm0EPcJSt14default_deleteIA_cEEERKT0_RKSt11_Tuple_implIXT_EJS4_DpT1_EE(ptr noundef nonnull align 8 dereferenceable(8) %0) #2 comdat {
  %2 = alloca ptr, align 8
  store ptr %0, ptr %2, align 8, !tbaa !131
  %3 = load ptr, ptr %2, align 8, !tbaa !131
  %4 = call noundef nonnull align 8 dereferenceable(8) ptr @_ZNSt11_Tuple_implILm0EJPcSt14default_deleteIA_cEEE7_M_headERKS4_(ptr noundef nonnull align 8 dereferenceable(8) %3) #13
  ret ptr %4
}

; Function Attrs: mustprogress nounwind uwtable
define linkonce_odr noundef nonnull align 8 dereferenceable(8) ptr @_ZSt3getILm0EJPcSt14default_deleteIA_cEEERKNSt13tuple_elementIXT_ESt5tupleIJDpT0_EEE4typeERKS8_(ptr noundef nonnull align 8 dereferenceable(8) %0) #2 comdat {
  %2 = alloca ptr, align 8
  store ptr %0, ptr %2, align 8, !tbaa !129
  %3 = load ptr, ptr %2, align 8, !tbaa !129
  %4 = call noundef nonnull align 8 dereferenceable(8) ptr @_ZSt12__get_helperILm0EPcJSt14default_deleteIA_cEEERKT0_RKSt11_Tuple_implIXT_EJS4_DpT1_EE(ptr noundef nonnull align 8 dereferenceable(8) %3) #13
  ret ptr %4
}

; Function Attrs: mustprogress nounwind uwtable
define linkonce_odr noundef ptr @_ZNKSt15__uniq_ptr_implIcSt14default_deleteIA_cEE6_M_ptrEv(ptr noundef nonnull align 8 dereferenceable(8) %0) #2 comdat align 2 {
  %2 = alloca ptr, align 8
  store ptr %0, ptr %2, align 8, !tbaa !127
  %3 = load ptr, ptr %2, align 8
  %4 = getelementptr inbounds nuw %"class.std::__uniq_ptr_impl", ptr %3, i32 0, i32 0
  %5 = call noundef nonnull align 8 dereferenceable(8) ptr @_ZSt3getILm0EJPcSt14default_deleteIA_cEEERKNSt13tuple_elementIXT_ESt5tupleIJDpT0_EEE4typeERKS8_(ptr noundef nonnull align 8 dereferenceable(8) %4) #13
  %6 = load ptr, ptr %5, align 8, !tbaa !26
  ret ptr %6
}

; Function Attrs: mustprogress nounwind uwtable
define linkonce_odr noundef ptr @_ZNKSt10unique_ptrIA_cSt14default_deleteIS0_EE3getEv(ptr noundef nonnull align 8 dereferenceable(8) %0) #2 comdat align 2 {
  %2 = alloca ptr, align 8
  store ptr %0, ptr %2, align 8, !tbaa !24
  %3 = load ptr, ptr %2, align 8
  %4 = getelementptr inbounds nuw %"class.std::unique_ptr", ptr %3, i32 0, i32 0
  %5 = call noundef ptr @_ZNKSt15__uniq_ptr_implIcSt14default_deleteIA_cEE6_M_ptrEv(ptr noundef nonnull align 8 dereferenceable(8) %4) #13
  ret ptr %5
}

; Function Attrs: mustprogress uwtable
define noundef zeroext i1 @_ZN3net16SpdyFrameBuilder4SeekEm(ptr noundef nonnull align 8 dereferenceable(36) %0, i64 noundef %1) #0 align 2 {
  %3 = alloca i1, align 1
  %4 = alloca ptr, align 8
  %5 = alloca i64, align 8
  store ptr %0, ptr %4, align 8, !tbaa !3
  store i64 %1, ptr %5, align 8, !tbaa !8
  %6 = load ptr, ptr %4, align 8
  %7 = load i64, ptr %5, align 8, !tbaa !8
  %8 = call noundef zeroext i1 @_ZNK3net16SpdyFrameBuilder8CanWriteEm(ptr noundef nonnull align 8 dereferenceable(36) %6, i64 noundef %7)
  br i1 %8, label %10, label %9

9:                                                ; preds = %2
  store i1 false, ptr %3, align 1
  br label %15

10:                                               ; preds = %2
  %11 = load i64, ptr %5, align 8, !tbaa !8
  %12 = getelementptr inbounds nuw %"class.net::SpdyFrameBuilder", ptr %6, i32 0, i32 2
  %13 = load i64, ptr %12, align 8, !tbaa !21
  %14 = add i64 %13, %11
  store i64 %14, ptr %12, align 8, !tbaa !21
  store i1 true, ptr %3, align 1
  br label %15

15:                                               ; preds = %10, %9
  %16 = load i1, ptr %3, align 1
  ret i1 %16
}

; Function Attrs: mustprogress uwtable
define noundef ptr @_ZN3net16SpdyFrameBuilder17GetWritableBufferEm(ptr noundef nonnull align 8 dereferenceable(36) %0, i64 noundef %1) #0 align 2 {
  %3 = alloca ptr, align 8
  %4 = alloca ptr, align 8
  %5 = alloca i64, align 8
  store ptr %0, ptr %4, align 8, !tbaa !3
  store i64 %1, ptr %5, align 8, !tbaa !8
  %6 = load ptr, ptr %4, align 8
  %7 = load i64, ptr %5, align 8, !tbaa !8
  %8 = call noundef zeroext i1 @_ZNK3net16SpdyFrameBuilder8CanWriteEm(ptr noundef nonnull align 8 dereferenceable(36) %6, i64 noundef %7)
  br i1 %8, label %10, label %9

9:                                                ; preds = %2
  store ptr null, ptr %3, align 8
  br label %19

10:                                               ; preds = %2
  %11 = getelementptr inbounds nuw %"class.net::SpdyFrameBuilder", ptr %6, i32 0, i32 0
  %12 = call noundef ptr @_ZNKSt10unique_ptrIA_cSt14default_deleteIS0_EE3getEv(ptr noundef nonnull align 8 dereferenceable(8) %11) #13
  %13 = getelementptr inbounds nuw %"class.net::SpdyFrameBuilder", ptr %6, i32 0, i32 3
  %14 = load i64, ptr %13, align 8, !tbaa !22
  %15 = getelementptr inbounds nuw i8, ptr %12, i64 %14
  %16 = getelementptr inbounds nuw %"class.net::SpdyFrameBuilder", ptr %6, i32 0, i32 2
  %17 = load i64, ptr %16, align 8, !tbaa !21
  %18 = getelementptr inbounds nuw i8, ptr %15, i64 %17
  store ptr %18, ptr %3, align 8
  br label %19

19:                                               ; preds = %10, %9
  %20 = load ptr, ptr %3, align 8
  ret ptr %20
}

; Function Attrs: mustprogress nounwind uwtable
define noundef zeroext i1 @_ZNK3net16SpdyFrameBuilder8CanWriteEm(ptr noundef nonnull align 8 dereferenceable(36) %0, i64 noundef %1) #2 align 2 {
  %3 = alloca i1, align 1
  %4 = alloca ptr, align 8
  %5 = alloca i64, align 8
  store ptr %0, ptr %4, align 8, !tbaa !3
  store i64 %1, ptr %5, align 8, !tbaa !8
  %6 = load ptr, ptr %4, align 8
  %7 = load i64, ptr %5, align 8, !tbaa !8
  %8 = icmp ugt i64 %7, 16777215
  br i1 %8, label %9, label %10

9:                                                ; preds = %2
  store i1 false, ptr %3, align 1
  br label %23

10:                                               ; preds = %2
  %11 = getelementptr inbounds nuw %"class.net::SpdyFrameBuilder", ptr %6, i32 0, i32 3
  %12 = load i64, ptr %11, align 8, !tbaa !22
  %13 = getelementptr inbounds nuw %"class.net::SpdyFrameBuilder", ptr %6, i32 0, i32 2
  %14 = load i64, ptr %13, align 8, !tbaa !21
  %15 = add i64 %12, %14
  %16 = load i64, ptr %5, align 8, !tbaa !8
  %17 = add i64 %15, %16
  %18 = getelementptr inbounds nuw %"class.net::SpdyFrameBuilder", ptr %6, i32 0, i32 1
  %19 = load i64, ptr %18, align 8, !tbaa !12
  %20 = icmp ugt i64 %17, %19
  br i1 %20, label %21, label %22

21:                                               ; preds = %10
  store i1 false, ptr %3, align 1
  br label %23

22:                                               ; preds = %10
  store i1 true, ptr %3, align 1
  br label %23

23:                                               ; preds = %22, %21, %9
  %24 = load i1, ptr %3, align 1
  ret i1 %24
}

; Function Attrs: mustprogress uwtable
define noundef zeroext i1 @_ZN3net16SpdyFrameBuilder10WriteBytesEPKvj(ptr noundef nonnull align 8 dereferenceable(36) %0, ptr noundef %1, i32 noundef %2) #0 align 2 {
  %4 = alloca i1, align 1
  %5 = alloca ptr, align 8
  %6 = alloca ptr, align 8
  %7 = alloca i32, align 4
  %8 = alloca ptr, align 8
  store ptr %0, ptr %5, align 8, !tbaa !3
  store ptr %1, ptr %6, align 8, !tbaa !102
  store i32 %2, ptr %7, align 4, !tbaa !103
  %9 = load ptr, ptr %5, align 8
  %10 = load i32, ptr %7, align 4, !tbaa !103
  %11 = zext i32 %10 to i64
  %12 = call noundef zeroext i1 @_ZNK3net16SpdyFrameBuilder8CanWriteEm(ptr noundef nonnull align 8 dereferenceable(36) %9, i64 noundef %11)
  br i1 %12, label %14, label %13

13:                                               ; preds = %3
  store i1 false, ptr %4, align 1
  br label %25

14:                                               ; preds = %3
  call void @llvm.lifetime.start.p0(i64 8, ptr %8) #13
  %15 = load i32, ptr %7, align 4, !tbaa !103
  %16 = zext i32 %15 to i64
  %17 = call noundef ptr @_ZN3net16SpdyFrameBuilder17GetWritableBufferEm(ptr noundef nonnull align 8 dereferenceable(36) %9, i64 noundef %16)
  store ptr %17, ptr %8, align 8, !tbaa !26
  %18 = load ptr, ptr %8, align 8, !tbaa !26
  %19 = load ptr, ptr %6, align 8, !tbaa !102
  %20 = load i32, ptr %7, align 4, !tbaa !103
  %21 = zext i32 %20 to i64
  call void @llvm.memcpy.p0.p0.i64(ptr align 1 %18, ptr align 1 %19, i64 %21, i1 false)
  %22 = load i32, ptr %7, align 4, !tbaa !103
  %23 = zext i32 %22 to i64
  %24 = call noundef zeroext i1 @_ZN3net16SpdyFrameBuilder4SeekEm(ptr noundef nonnull align 8 dereferenceable(36) %9, i64 noundef %23)
  store i1 true, ptr %4, align 1
  call void @llvm.lifetime.end.p0(i64 8, ptr %8) #13
  br label %25

25:                                               ; preds = %14, %13
  %26 = load i1, ptr %4, align 1
  ret i1 %26
}