; Function Attrs: mustprogress nofree norecurse nosync nounwind willreturn memory(readwrite, inaccessiblemem: none) uwtable
define noundef zeroext i1 @_ZN3net16SpdyFrameBuilder10WriteBytesEPKvj(ptr noundef nonnull align 8 captures(none) dereferenceable(36) %0, ptr noundef readonly captures(none) %1, i32 noundef %2) local_unnamed_addr #8 align 2 {
  %4 = zext i32 %2 to i64
  %5 = icmp ugt i32 %2, 16777215
  br i1 %5, label %_ZN3net16SpdyFrameBuilder4SeekEm.exit, label %_ZNK3net16SpdyFrameBuilder8CanWriteEm.exit

_ZNK3net16SpdyFrameBuilder8CanWriteEm.exit:       ; preds = %3
  %6 = getelementptr inbounds nuw i8, ptr %0, i64 24
  %7 = load i64, ptr %6, align 8, !tbaa !19
  %8 = getelementptr inbounds nuw i8, ptr %0, i64 16
  %9 = load i64, ptr %8, align 8, !tbaa !20
  %10 = add i64 %7, %4
  %11 = add i64 %10, %9
  %12 = getelementptr inbounds nuw i8, ptr %0, i64 8
  %13 = load i64, ptr %12, align 8, !tbaa !8
  %.not = icmp ugt i64 %11, %13
  br i1 %.not, label %_ZN3net16SpdyFrameBuilder4SeekEm.exit, label %_ZNK3net16SpdyFrameBuilder8CanWriteEm.exit.i

_ZNK3net16SpdyFrameBuilder8CanWriteEm.exit.i:     ; preds = %_ZNK3net16SpdyFrameBuilder8CanWriteEm.exit
  %14 = load ptr, ptr %0, align 8
  %15 = getelementptr inbounds nuw i8, ptr %14, i64 %7
  %16 = getelementptr inbounds nuw i8, ptr %15, i64 %9
  tail call void @llvm.memcpy.p0.p0.i64(ptr align 1 %16, ptr align 1 %1, i64 %4, i1 false)
  %17 = load i64, ptr %6, align 8, !tbaa !19
  %18 = load i64, ptr %8, align 8, !tbaa !20
  %19 = add i64 %18, %4
  %20 = add i64 %19, %17
  %21 = load i64, ptr %12, align 8, !tbaa !8
  %.not.i9 = icmp ugt i64 %20, %21
  br i1 %.not.i9, label %_ZN3net16SpdyFrameBuilder4SeekEm.exit, label %22

22:                                               ; preds = %_ZNK3net16SpdyFrameBuilder8CanWriteEm.exit.i
  store i64 %19, ptr %8, align 8, !tbaa !20
  br label %_ZN3net16SpdyFrameBuilder4SeekEm.exit

_ZN3net16SpdyFrameBuilder4SeekEm.exit:            ; preds = %3, %22, %_ZNK3net16SpdyFrameBuilder8CanWriteEm.exit.i, %_ZNK3net16SpdyFrameBuilder8CanWriteEm.exit
  %.0.i11 = phi i1 [ false, %_ZNK3net16SpdyFrameBuilder8CanWriteEm.exit ], [ true, %_ZNK3net16SpdyFrameBuilder8CanWriteEm.exit.i ], [ true, %22 ], [ false, %3 ]
  ret i1 %.0.i11
}